; Function Attrs: nounwind uwtable
define internal void @fn_signal(i64 noundef %0, i32 noundef %1) #0 {
  %3 = alloca i64, align 8
  %4 = alloca %struct.strbuf, align 8
  store i64 %0, ptr %3, align 8, !tbaa !9
  call void @llvm.lifetime.start.p0(i64 24, ptr nonnull %4) #7
  call void @llvm.memcpy.p0.p0.i64(ptr noundef nonnull align 8 dereferenceable(24) %4, ptr noundef nonnull align 8 dereferenceable(24) @__const.fn_counter.buf_payload, i64 24, i1 false)
  call void (ptr, ptr, ...) @strbuf_addf(ptr noundef nonnull %4, ptr noundef nonnull @.str.19, i32 noundef %1) #7
  call fastcc void @perf_io_write_fl(ptr noundef nonnull @.str.20, i32 noundef 207, ptr noundef nonnull @.str.18, ptr noundef null, ptr noundef nonnull %3, ptr noundef null, ptr noundef null, ptr noundef %4)
  call void @strbuf_release(ptr noundef nonnull %4) #7
  call void @llvm.lifetime.end.p0(i64 24, ptr nonnull %4) #7
  ret void
}